target datalayout = "e-m:e-p270:32:32-p271:32:32-p272:64:64-i64:64-i128:128-f80:128-n8:16:32:64-S128"
target triple = "x86_64-pc-linux-gnu"

%"class.gmx::ArrayRef" = type { %"struct.gmx::ArrayRefIter", %"struct.gmx::ArrayRefIter" }
%"struct.gmx::ArrayRefIter" = type { ptr }
%union.t_iparams = type { %struct.anon.21 }
%struct.anon.21 = type { [3 x float], [3 x float], [3 x float], [3 x float] }
%struct.anon.3 = type { float, float, float }

; Function Attrs: mustprogress nounwind uwtable
define linkonce_odr noundef float @_ZSt4sqrtf(float noundef %0) #3 comdat {
  %2 = alloca float, align 4
  store float %0, ptr %2, align 4
  %3 = load float, ptr %2, align 4
  %4 = call float @sqrtf(float noundef %3) #4
  ret float %4
}

; Function Attrs: mustprogress nounwind uwtable
define internal void @_ZL8rvec_subPKfS0_Pf(ptr noundef %0, ptr noundef %1, ptr noundef %2) #3 {
  %4 = alloca ptr, align 8
  %5 = alloca ptr, align 8
  %6 = alloca ptr, align 8
  %7 = alloca float, align 4
  %8 = alloca float, align 4
  %9 = alloca float, align 4
  store ptr %0, ptr %4, align 8
  store ptr %1, ptr %5, align 8
  store ptr %2, ptr %6, align 8
  %10 = load ptr, ptr %4, align 8
  %11 = getelementptr inbounds float, ptr %10, i64 0
  %12 = load float, ptr %11, align 4
  %13 = load ptr, ptr %5, align 8
  %14 = getelementptr inbounds float, ptr %13, i64 0
  %15 = load float, ptr %14, align 4
  %16 = fsub float %12, %15
  store float %16, ptr %7, align 4
  %17 = load ptr, ptr %4, align 8
  %18 = getelementptr inbounds float, ptr %17, i64 1
  %19 = load float, ptr %18, align 4
  %20 = load ptr, ptr %5, align 8
  %21 = getelementptr inbounds float, ptr %20, i64 1
  %22 = load float, ptr %21, align 4
  %23 = fsub float %19, %22
  store float %23, ptr %8, align 4
  %24 = load ptr, ptr %4, align 8
  %25 = getelementptr inbounds float, ptr %24, i64 2
  %26 = load float, ptr %25, align 4
  %27 = load ptr, ptr %5, align 8
  %28 = getelementptr inbounds float, ptr %27, i64 2
  %29 = load float, ptr %28, align 4
  %30 = fsub float %26, %29
  store float %30, ptr %9, align 4
  %31 = load float, ptr %7, align 4
  %32 = load ptr, ptr %6, align 8
  %33 = getelementptr inbounds float, ptr %32, i64 0
  store float %31, ptr %33, align 4
  %34 = load float, ptr %8, align 4
  %35 = load ptr, ptr %6, align 8
  %36 = getelementptr inbounds float, ptr %35, i64 1
  store float %34, ptr %36, align 4
  %37 = load float, ptr %9, align 4
  %38 = load ptr, ptr %6, align 8
  %39 = getelementptr inbounds float, ptr %38, i64 2
  store float %37, ptr %39, align 4
  ret void
}

; Function Attrs: mustprogress nounwind uwtable
define internal void @_ZN12_GLOBAL__N_116spreadBondForcesIL18BondedKernelFlavor0EEEvfPKfiiPA4_fiPA3_f(float noundef %0, ptr noundef %1, i32 noundef %2, i32 noundef %3, ptr noundef %4, i32 noundef %5, ptr noundef %6) #3 {
  %8 = alloca float, align 4
  %9 = alloca ptr, align 8
  %10 = alloca i32, align 4
  %11 = alloca i32, align 4
  %12 = alloca ptr, align 8
  %13 = alloca i32, align 4
  %14 = alloca ptr, align 8
  %15 = alloca i32, align 4
  %16 = alloca float, align 4
  store float %0, ptr %8, align 4
  store ptr %1, ptr %9, align 8
  store i32 %2, ptr %10, align 4
  store i32 %3, ptr %11, align 4
  store ptr %4, ptr %12, align 8
  store i32 %5, ptr %13, align 4
  store ptr %6, ptr %14, align 8
  store i32 0, ptr %15, align 4
  br label %17

17:                                               ; preds = %48, %7
  %18 = load i32, ptr %15, align 4
  %19 = icmp slt i32 %18, 3
  br i1 %19, label %20, label %51

20:                                               ; preds = %17
  %21 = load float, ptr %8, align 4
  %22 = load ptr, ptr %9, align 8
  %23 = load i32, ptr %15, align 4
  %24 = sext i32 %23 to i64
  %25 = getelementptr inbounds float, ptr %22, i64 %24
  %26 = load float, ptr %25, align 4
  %27 = fmul float %21, %26
  store float %27, ptr %16, align 4
  %28 = load float, ptr %16, align 4
  %29 = load ptr, ptr %12, align 8
  %30 = load i32, ptr %10, align 4
  %31 = sext i32 %30 to i64
  %32 = getelementptr inbounds [4 x float], ptr %29, i64 %31
  %33 = load i32, ptr %15, align 4
  %34 = sext i32 %33 to i64
  %35 = getelementptr inbounds [4 x float], ptr %32, i64 0, i64 %34
  %36 = load float, ptr %35, align 4
  %37 = fadd float %36, %28
  store float %37, ptr %35, align 4
  %38 = load float, ptr %16, align 4
  %39 = load ptr, ptr %12, align 8
  %40 = load i32, ptr %11, align 4
  %41 = sext i32 %40 to i64
  %42 = getelementptr inbounds [4 x float], ptr %39, i64 %41
  %43 = load i32, ptr %15, align 4
  %44 = sext i32 %43 to i64
  %45 = getelementptr inbounds [4 x float], ptr %42, i64 0, i64 %44
  %46 = load float, ptr %45, align 4
  %47 = fsub float %46, %38
  store float %47, ptr %45, align 4
  br label %48

48:                                               ; preds = %20
  %49 = load i32, ptr %15, align 4
  %50 = add nsw i32 %49, 1
  store i32 %50, ptr %15, align 4
  br label %17, !llvm.loop !204

51:                                               ; preds = %17
  ret void
}

; Function Attrs: mustprogress nounwind uwtable
define internal noundef float @_ZN3gmxL7invsqrtEf(float noundef %0) #3 {
  %2 = alloca float, align 4
  store float %0, ptr %2, align 4
  %3 = load float, ptr %2, align 4
  %4 = call noundef float @_ZSt4sqrtf(float noundef %3)
  %5 = fdiv float 1.000000e+00, %4
  ret float %5
}

; Function Attrs: mustprogress nounwind uwtable
define internal noundef float @_ZL5iprodPKfS0_(ptr noundef %0, ptr noundef %1) #3 {
  %3 = alloca ptr, align 8
  %4 = alloca ptr, align 8
  store ptr %0, ptr %3, align 8
  store ptr %1, ptr %4, align 8
  %5 = load ptr, ptr %3, align 8
  %6 = getelementptr inbounds float, ptr %5, i64 0
  %7 = load float, ptr %6, align 4
  %8 = load ptr, ptr %4, align 8
  %9 = getelementptr inbounds float, ptr %8, i64 0
  %10 = load float, ptr %9, align 4
  %11 = load ptr, ptr %3, align 8
  %12 = getelementptr inbounds float, ptr %11, i64 1
  %13 = load float, ptr %12, align 4
  %14 = load ptr, ptr %4, align 8
  %15 = getelementptr inbounds float, ptr %14, i64 1
  %16 = load float, ptr %15, align 4
  %17 = fmul float %13, %16
  %18 = call float @llvm.fmuladd.f32(float %7, float %10, float %17)
  %19 = load ptr, ptr %3, align 8
  %20 = getelementptr inbounds float, ptr %19, i64 2
  %21 = load float, ptr %20, align 4
  %22 = load ptr, ptr %4, align 8
  %23 = getelementptr inbounds float, ptr %22, i64 2
  %24 = load float, ptr %23, align 4
  %25 = call float @llvm.fmuladd.f32(float %21, float %24, float %18)
  ret float %25
}

; Function Attrs: mustprogress uwtable
define internal noundef i32 @_ZN12_GLOBAL__N_112pbc_rvec_subEPK5t_pbcPKfS4_Pf(ptr noundef %0, ptr noundef %1, ptr noundef %2, ptr noundef %3) #2 {
  %5 = alloca i32, align 4
  %6 = alloca ptr, align 8
  %7 = alloca ptr, align 8
  %8 = alloca ptr, align 8
  %9 = alloca ptr, align 8
  store ptr %0, ptr %6, align 8
  store ptr %1, ptr %7, align 8
  store ptr %2, ptr %8, align 8
  store ptr %3, ptr %9, align 8
  %10 = load ptr, ptr %6, align 8
  %11 = icmp ne ptr %10, null
  br i1 %11, label %12, label %18

12:                                               ; preds = %4
  %13 = load ptr, ptr %6, align 8
  %14 = load ptr, ptr %7, align 8
  %15 = load ptr, ptr %8, align 8
  %16 = load ptr, ptr %9, align 8
  %17 = call noundef i32 @_Z11pbc_dx_aiucPK5t_pbcPKfS3_Pf(ptr noundef %13, ptr noundef %14, ptr noundef %15, ptr noundef %16)
  store i32 %17, ptr %5, align 4
  br label %22

18:                                               ; preds = %4
  %19 = load ptr, ptr %7, align 8
  %20 = load ptr, ptr %8, align 8
  %21 = load ptr, ptr %9, align 8
  call void @_ZL8rvec_subPKfS0_Pf(ptr noundef %19, ptr noundef %20, ptr noundef %21)
  store i32 22, ptr %5, align 4
  br label %22

22:                                               ; preds = %18, %12
  %23 = load i32, ptr %5, align 4
  ret i32 %23
}

; Function Attrs: mustprogress uwtable
define internal noundef float @_ZN12_GLOBAL__N_111cubic_bondsIL18BondedKernelFlavor0EEEfiPKiPK9t_iparamsPA3_KfPA4_fPA3_fPK5t_pbcfPfN3gmx8ArrayRefIS7_EEP8t_fcdataP12t_disresdataP12t_oriresdataPi(i32 noundef %0, ptr noundef %1, ptr noundef %2, ptr noundef %3, ptr noundef %4, ptr noundef %5, ptr noundef %6, float noundef %7, ptr noundef %8, ptr noundef byval(%"class.gmx::ArrayRef") align 8 %9, ptr noundef %10, ptr noundef %11, ptr noundef %12, ptr noundef %13) #2 {
  %15 = alloca i32, align 4
  %16 = alloca ptr, align 8
  %17 = alloca ptr, align 8
  %18 = alloca ptr, align 8
  %19 = alloca ptr, align 8
  %20 = alloca ptr, align 8
  %21 = alloca ptr, align 8
  %22 = alloca float, align 4
  %23 = alloca ptr, align 8
  %24 = alloca ptr, align 8
  %25 = alloca ptr, align 8
  %26 = alloca ptr, align 8
  %27 = alloca ptr, align 8
  %28 = alloca float, align 4
  %29 = alloca float, align 4
  %30 = alloca float, align 4
  %31 = alloca float, align 4
  %32 = alloca float, align 4
  %33 = alloca float, align 4
  %34 = alloca float, align 4
  %35 = alloca float, align 4
  %36 = alloca float, align 4
  %37 = alloca float, align 4
  %38 = alloca float, align 4
  %39 = alloca float, align 4
  %40 = alloca float, align 4
  %41 = alloca [3 x float], align 4
  %42 = alloca i32, align 4
  %43 = alloca i32, align 4
  %44 = alloca i32, align 4
  %45 = alloca i32, align 4
  %46 = alloca i32, align 4
  store i32 %0, ptr %15, align 4
  store ptr %1, ptr %16, align 8
  store ptr %2, ptr %17, align 8
  store ptr %3, ptr %18, align 8
  store ptr %4, ptr %19, align 8
  store ptr %5, ptr %20, align 8
  store ptr %6, ptr %21, align 8
  store float %7, ptr %22, align 4
  store ptr %8, ptr %23, align 8
  store ptr %10, ptr %24, align 8
  store ptr %11, ptr %25, align 8
  store ptr %12, ptr %26, align 8
  store ptr %13, ptr %27, align 8
  store float 3.000000e+00, ptr %28, align 4
  store float 2.000000e+00, ptr %29, align 4
  store float 0.000000e+00, ptr %40, align 4
  store i32 0, ptr %42, align 4
  br label %47

47:                                               ; preds = %108, %107, %14
  %48 = load i32, ptr %42, align 4
  %49 = load i32, ptr %15, align 4
  %50 = icmp slt i32 %48, %49
  br i1 %50, label %51, label %147

51:                                               ; preds = %47
  %52 = load ptr, ptr %16, align 8
  %53 = load i32, ptr %42, align 4
  %54 = add nsw i32 %53, 1
  store i32 %54, ptr %42, align 4
  %55 = sext i32 %53 to i64
  %56 = getelementptr inbounds i32, ptr %52, i64 %55
  %57 = load i32, ptr %56, align 4
  store i32 %57, ptr %44, align 4
  %58 = load ptr, ptr %16, align 8
  %59 = load i32, ptr %42, align 4
  %60 = add nsw i32 %59, 1
  store i32 %60, ptr %42, align 4
  %61 = sext i32 %59 to i64
  %62 = getelementptr inbounds i32, ptr %58, i64 %61
  %63 = load i32, ptr %62, align 4
  store i32 %63, ptr %45, align 4
  %64 = load ptr, ptr %16, align 8
  %65 = load i32, ptr %42, align 4
  %66 = add nsw i32 %65, 1
  store i32 %66, ptr %42, align 4
  %67 = sext i32 %65 to i64
  %68 = getelementptr inbounds i32, ptr %64, i64 %67
  %69 = load i32, ptr %68, align 4
  store i32 %69, ptr %46, align 4
  %70 = load ptr, ptr %17, align 8
  %71 = load i32, ptr %44, align 4
  %72 = sext i32 %71 to i64
  %73 = getelementptr inbounds %union.t_iparams, ptr %70, i64 %72
  %74 = getelementptr inbounds %struct.anon.3, ptr %73, i32 0, i32 0
  %75 = load float, ptr %74, align 4
  store float %75, ptr %31, align 4
  %76 = load ptr, ptr %17, align 8
  %77 = load i32, ptr %44, align 4
  %78 = sext i32 %77 to i64
  %79 = getelementptr inbounds %union.t_iparams, ptr %76, i64 %78
  %80 = getelementptr inbounds %struct.anon.3, ptr %79, i32 0, i32 1
  %81 = load float, ptr %80, align 4
  store float %81, ptr %30, align 4
  %82 = load ptr, ptr %17, align 8
  %83 = load i32, ptr %44, align 4
  %84 = sext i32 %83 to i64
  %85 = getelementptr inbounds %union.t_iparams, ptr %82, i64 %84
  %86 = getelementptr inbounds %struct.anon.3, ptr %85, i32 0, i32 2
  %87 = load float, ptr %86, align 4
  store float %87, ptr %32, align 4
  %88 = load ptr, ptr %21, align 8
  %89 = load ptr, ptr %18, align 8
  %90 = load i32, ptr %45, align 4
  %91 = sext i32 %90 to i64
  %92 = getelementptr inbounds [3 x float], ptr %89, i64 %91
  %93 = getelementptr inbounds [3 x float], ptr %92, i64 0, i64 0
  %94 = load ptr, ptr %18, align 8
  %95 = load i32, ptr %46, align 4
  %96 = sext i32 %95 to i64
  %97 = getelementptr inbounds [3 x float], ptr %94, i64 %96
  %98 = getelementptr inbounds [3 x float], ptr %97, i64 0, i64 0
  %99 = getelementptr inbounds [3 x float], ptr %41, i64 0, i64 0
  %100 = call noundef i32 @_ZN12_GLOBAL__N_112pbc_rvec_subEPK5t_pbcPKfS4_Pf(ptr noundef %88, ptr noundef %93, ptr noundef %98, ptr noundef %99)
  store i32 %100, ptr %43, align 4
  %101 = getelementptr inbounds [3 x float], ptr %41, i64 0, i64 0
  %102 = getelementptr inbounds [3 x float], ptr %41, i64 0, i64 0
  %103 = call noundef float @_ZL5iprodPKfS0_(ptr noundef %101, ptr noundef %102)
  store float %103, ptr %34, align 4
  %104 = load float, ptr %34, align 4
  %105 = fpext float %104 to double
  %106 = fcmp oeq double %105, 0.000000e+00
  br i1 %106, label %107, label %108

107:                                              ; preds = %51
  br label %47, !llvm.loop !17

108:                                              ; preds = %51
  %109 = load float, ptr %34, align 4
  %110 = load float, ptr %34, align 4
  %111 = call noundef float @_ZN3gmxL7invsqrtEf(float noundef %110)
  %112 = fmul float %109, %111
  store float %112, ptr %33, align 4
  %113 = load float, ptr %33, align 4
  %114 = load float, ptr %31, align 4
  %115 = fsub float %113, %114
  store float %115, ptr %35, align 4
  %116 = load float, ptr %30, align 4
  %117 = load float, ptr %35, align 4
  %118 = fmul float %116, %117
  store float %118, ptr %36, align 4
  %119 = load float, ptr %36, align 4
  %120 = load float, ptr %35, align 4
  %121 = fmul float %119, %120
  store float %121, ptr %37, align 4
  %122 = load float, ptr %37, align 4
  %123 = load float, ptr %32, align 4
  %124 = load float, ptr %37, align 4
  %125 = fmul float %123, %124
  %126 = load float, ptr %35, align 4
  %127 = call float @llvm.fmuladd.f32(float %125, float %126, float %122)
  store float %127, ptr %39, align 4
  %128 = load float, ptr %36, align 4
  %129 = load float, ptr %37, align 4
  %130 = fmul float 3.000000e+00, %129
  %131 = load float, ptr %32, align 4
  %132 = fmul float %130, %131
  %133 = call float @llvm.fmuladd.f32(float 2.000000e+00, float %128, float %132)
  %134 = fneg float %133
  %135 = load float, ptr %33, align 4
  %136 = fdiv float %134, %135
  store float %136, ptr %38, align 4
  %137 = load float, ptr %39, align 4
  %138 = load float, ptr %40, align 4
  %139 = fadd float %138, %137
  store float %139, ptr %40, align 4
  %140 = load float, ptr %38, align 4
  %141 = getelementptr inbounds [3 x float], ptr %41, i64 0, i64 0
  %142 = load i32, ptr %45, align 4
  %143 = load i32, ptr %46, align 4
  %144 = load ptr, ptr %19, align 8
  %145 = load i32, ptr %43, align 4
  %146 = load ptr, ptr %20, align 8
  call void @_ZN12_GLOBAL__N_116spreadBondForcesIL18BondedKernelFlavor0EEEvfPKfiiPA4_fiPA3_f(float noundef %140, ptr noundef %141, i32 noundef %142, i32 noundef %143, ptr noundef %144, i32 noundef %145, ptr noundef %146)
  br label %47, !llvm.loop !17

147:                                              ; preds = %47
  %148 = load float, ptr %40, align 4
  ret float %148
}