; Function Attrs: mustprogress uwtable
define internal noundef float @_ZN12_GLOBAL__N_111cubic_bondsIL18BondedKernelFlavor0EEEfiPKiPK9t_iparamsPA3_KfPA4_fPA3_fPK5t_pbcfPfN3gmx8ArrayRefIS7_EEP8t_fcdataP12t_disresdataP12t_oriresdataPi(i32 noundef %0, ptr nocapture noundef readonly %1, ptr nocapture noundef readonly %2, ptr noundef %3, ptr nocapture noundef %4, ptr nocapture readnone %5, ptr noundef %6, float %7, ptr nocapture readnone %8, ptr nocapture noundef readnone byval(%"class.gmx::ArrayRef") align 8 %9, ptr nocapture readnone %10, ptr nocapture readnone %11, ptr nocapture readnone %12, ptr nocapture readnone %13) #4 {
  %15 = alloca [3 x float], align 8
  %.not.i = icmp eq ptr %6, null
  %16 = getelementptr inbounds i8, ptr %15, i64 4
  %17 = getelementptr inbounds i8, ptr %15, i64 8
  br i1 %.not.i, label %.split60.us, label %.outer.preheader

.outer.preheader:                                 ; preds = %14
  %18 = sext i32 %0 to i64
  br label %.outer

.split60.us:                                      ; preds = %14
  %19 = icmp sgt i32 %0, 0
  br i1 %19, label %_ZN12_GLOBAL__N_112pbc_rvec_subEPK5t_pbcPKfS4_Pf.exit.us.us.lr.ph.preheader, label %.split

_ZN12_GLOBAL__N_112pbc_rvec_subEPK5t_pbcPKfS4_Pf.exit.us.us.lr.ph.preheader: ; preds = %.split60.us
  %20 = zext nneg i32 %0 to i64
  br label %_ZN12_GLOBAL__N_112pbc_rvec_subEPK5t_pbcPKfS4_Pf.exit.us.us.lr.ph

21:                                               ; preds = %.split52.us.us, %21
  %indvars.iv.i.us = phi i64 [ 0, %.split52.us.us ], [ %indvars.iv.next.i.us, %21 ]
  %22 = getelementptr inbounds float, ptr %15, i64 %indvars.iv.i.us
  %23 = load float, ptr %22, align 4
  %24 = fmul float %79, %23
  %25 = getelementptr inbounds [4 x float], ptr %4, i64 %43, i64 %indvars.iv.i.us
  %26 = load float, ptr %25, align 4
  %27 = fadd float %26, %24
  store float %27, ptr %25, align 4
  %28 = getelementptr inbounds [4 x float], ptr %4, i64 %45, i64 %indvars.iv.i.us
  %29 = load float, ptr %28, align 4
  %30 = fsub float %29, %24
  store float %30, ptr %28, align 4
  %indvars.iv.next.i.us = add nuw nsw i64 %indvars.iv.i.us, 1
  %exitcond.not.i.us = icmp eq i64 %indvars.iv.next.i.us, 3
  br i1 %exitcond.not.i.us, label %_ZN12_GLOBAL__N_116spreadBondForcesIL18BondedKernelFlavor0EEEvfPKfiiPA4_fiPA3_f.exit.us, label %21, !llvm.loop !15

_ZN12_GLOBAL__N_116spreadBondForcesIL18BondedKernelFlavor0EEEvfPKfiiPA4_fiPA3_f.exit.us: ; preds = %21
  %31 = trunc nsw i64 %indvars.iv.next124 to i32
  %32 = tail call float @llvm.fmuladd.f32(float %74, float %71, float %73)
  %33 = fadd float %.0.ph.us92, %32
  %34 = icmp slt i32 %31, %0
  br i1 %34, label %_ZN12_GLOBAL__N_112pbc_rvec_subEPK5t_pbcPKfS4_Pf.exit.us.us.lr.ph, label %.split, !llvm.loop !18

_ZN12_GLOBAL__N_112pbc_rvec_subEPK5t_pbcPKfS4_Pf.exit.us.us.lr.ph: ; preds = %_ZN12_GLOBAL__N_112pbc_rvec_subEPK5t_pbcPKfS4_Pf.exit.us.us.lr.ph.preheader, %_ZN12_GLOBAL__N_116spreadBondForcesIL18BondedKernelFlavor0EEEvfPKfiiPA4_fiPA3_f.exit.us
  %.0.ph.us92 = phi float [ %33, %_ZN12_GLOBAL__N_116spreadBondForcesIL18BondedKernelFlavor0EEEvfPKfiiPA4_fiPA3_f.exit.us ], [ 0.000000e+00, %_ZN12_GLOBAL__N_112pbc_rvec_subEPK5t_pbcPKfS4_Pf.exit.us.us.lr.ph.preheader ]
  %.044.ph.us91 = phi i64 [ %indvars.iv.next124, %_ZN12_GLOBAL__N_116spreadBondForcesIL18BondedKernelFlavor0EEEvfPKfiiPA4_fiPA3_f.exit.us ], [ 0, %_ZN12_GLOBAL__N_112pbc_rvec_subEPK5t_pbcPKfS4_Pf.exit.us.us.lr.ph.preheader ]
  %sext126 = shl i64 %.044.ph.us91, 32
  %35 = ashr exact i64 %sext126, 32
  br label %_ZN12_GLOBAL__N_112pbc_rvec_subEPK5t_pbcPKfS4_Pf.exit.us.us

36:                                               ; preds = %_ZN12_GLOBAL__N_112pbc_rvec_subEPK5t_pbcPKfS4_Pf.exit.us.us
  %37 = icmp slt i64 %indvars.iv.next124, %20
  br i1 %37, label %_ZN12_GLOBAL__N_112pbc_rvec_subEPK5t_pbcPKfS4_Pf.exit.us.us, label %.split, !llvm.loop !18

_ZN12_GLOBAL__N_112pbc_rvec_subEPK5t_pbcPKfS4_Pf.exit.us.us: ; preds = %_ZN12_GLOBAL__N_112pbc_rvec_subEPK5t_pbcPKfS4_Pf.exit.us.us.lr.ph, %36
  %indvars.iv123 = phi i64 [ %35, %_ZN12_GLOBAL__N_112pbc_rvec_subEPK5t_pbcPKfS4_Pf.exit.us.us.lr.ph ], [ %indvars.iv.next124, %36 ]
  %38 = getelementptr inbounds i32, ptr %1, i64 %indvars.iv123
  %39 = getelementptr i8, ptr %38, i64 4
  %40 = load i32, ptr %39, align 4
  %indvars.iv.next124 = add nsw i64 %indvars.iv123, 3
  %41 = getelementptr i8, ptr %38, i64 8
  %42 = load i32, ptr %41, align 4
  %43 = sext i32 %40 to i64
  %44 = getelementptr inbounds [3 x float], ptr %3, i64 %43
  %45 = sext i32 %42 to i64
  %46 = getelementptr inbounds [3 x float], ptr %3, i64 %45
  %47 = load <2 x float>, ptr %44, align 4
  %48 = load <2 x float>, ptr %46, align 4
  %49 = fsub <2 x float> %47, %48
  %50 = getelementptr inbounds i8, ptr %44, i64 8
  %51 = load float, ptr %50, align 4
  %52 = getelementptr inbounds i8, ptr %46, i64 8
  %53 = load float, ptr %52, align 4
  %54 = fsub float %51, %53
  %55 = fmul <2 x float> %49, %49
  %56 = extractelement <2 x float> %55, i64 1
  %57 = extractelement <2 x float> %49, i64 0
  %58 = tail call float @llvm.fmuladd.f32(float %57, float %57, float %56)
  %59 = tail call noundef float @llvm.fmuladd.f32(float %54, float %54, float %58)
  %60 = fcmp oeq float %59, 0.000000e+00
  br i1 %60, label %36, label %.split52.us.us, !llvm.loop !18

.split52.us.us:                                   ; preds = %_ZN12_GLOBAL__N_112pbc_rvec_subEPK5t_pbcPKfS4_Pf.exit.us.us
  %61 = load i32, ptr %38, align 4
  %62 = sext i32 %61 to i64
  %63 = getelementptr inbounds %union.t_iparams, ptr %2, i64 %62
  %64 = load float, ptr %63, align 4
  %65 = getelementptr inbounds i8, ptr %63, i64 4
  %66 = load float, ptr %65, align 4
  %67 = getelementptr inbounds i8, ptr %63, i64 8
  %68 = load float, ptr %67, align 4
  store <2 x float> %49, ptr %15, align 8
  store float %54, ptr %17, align 8
  %sqrt.us = tail call float @llvm.sqrt.f32(float %59)
  %69 = fdiv float 1.000000e+00, %sqrt.us
  %70 = fmul float %59, %69
  %71 = fsub float %70, %64
  %72 = fmul float %66, %71
  %73 = fmul float %71, %72
  %74 = fmul float %68, %73
  %75 = fmul float %73, 3.000000e+00
  %76 = fmul float %68, %75
  %77 = tail call float @llvm.fmuladd.f32(float %72, float 2.000000e+00, float %76)
  %78 = fneg float %77
  %79 = fdiv float %78, %70
  br label %21

.outer:                                           ; preds = %.outer.preheader, %_ZN12_GLOBAL__N_116spreadBondForcesIL18BondedKernelFlavor0EEEvfPKfiiPA4_fiPA3_f.exit
  %.044.ph = phi i64 [ %indvars.iv.next, %_ZN12_GLOBAL__N_116spreadBondForcesIL18BondedKernelFlavor0EEEvfPKfiiPA4_fiPA3_f.exit ], [ 0, %.outer.preheader ]
  %.0.ph = phi float [ %130, %_ZN12_GLOBAL__N_116spreadBondForcesIL18BondedKernelFlavor0EEEvfPKfiiPA4_fiPA3_f.exit ], [ 0.000000e+00, %.outer.preheader ]
  %sext = shl i64 %.044.ph, 32
  %80 = ashr exact i64 %sext, 32
  br label %81

81:                                               ; preds = %.outer, %_ZN12_GLOBAL__N_112pbc_rvec_subEPK5t_pbcPKfS4_Pf.exit
  %indvars.iv = phi i64 [ %80, %.outer ], [ %indvars.iv.next, %_ZN12_GLOBAL__N_112pbc_rvec_subEPK5t_pbcPKfS4_Pf.exit ]
  %82 = icmp slt i64 %indvars.iv, %18
  br i1 %82, label %_ZN12_GLOBAL__N_112pbc_rvec_subEPK5t_pbcPKfS4_Pf.exit, label %.split

_ZN12_GLOBAL__N_112pbc_rvec_subEPK5t_pbcPKfS4_Pf.exit: ; preds = %81
  %83 = getelementptr inbounds i32, ptr %1, i64 %indvars.iv
  %84 = load i32, ptr %83, align 4
  %85 = getelementptr i8, ptr %83, i64 4
  %86 = load i32, ptr %85, align 4
  %indvars.iv.next = add nsw i64 %indvars.iv, 3
  %87 = getelementptr i8, ptr %83, i64 8
  %88 = load i32, ptr %87, align 4
  %89 = sext i32 %84 to i64
  %90 = getelementptr inbounds %union.t_iparams, ptr %2, i64 %89
  %91 = load float, ptr %90, align 4
  %92 = getelementptr inbounds i8, ptr %90, i64 4
  %93 = load float, ptr %92, align 4
  %94 = getelementptr inbounds i8, ptr %90, i64 8
  %95 = load float, ptr %94, align 4
  %96 = sext i32 %86 to i64
  %97 = getelementptr inbounds [3 x float], ptr %3, i64 %96
  %98 = sext i32 %88 to i64
  %99 = getelementptr inbounds [3 x float], ptr %3, i64 %98
  %100 = call noundef i32 @_Z11pbc_dx_aiucPK5t_pbcPKfS3_Pf(ptr noundef nonnull %6, ptr noundef %97, ptr noundef %99, ptr noundef nonnull %15)
  %101 = load float, ptr %15, align 8
  %102 = load float, ptr %16, align 4
  %103 = fmul float %102, %102
  %104 = call float @llvm.fmuladd.f32(float %101, float %101, float %103)
  %105 = load float, ptr %17, align 8
  %106 = call noundef float @llvm.fmuladd.f32(float %105, float %105, float %104)
  %107 = fcmp oeq float %106, 0.000000e+00
  br i1 %107, label %81, label %.split52, !llvm.loop !18

.split52:                                         ; preds = %_ZN12_GLOBAL__N_112pbc_rvec_subEPK5t_pbcPKfS4_Pf.exit
  %sqrt = call float @llvm.sqrt.f32(float %106)
  %108 = fdiv float 1.000000e+00, %sqrt
  %109 = fmul float %106, %108
  %110 = fsub float %109, %91
  %111 = fmul float %93, %110
  %112 = fmul float %110, %111
  %113 = fmul float %95, %112
  %114 = fmul float %112, 3.000000e+00
  %115 = fmul float %95, %114
  %116 = call float @llvm.fmuladd.f32(float %111, float 2.000000e+00, float %115)
  %117 = fneg float %116
  %118 = fdiv float %117, %109
  br label %119

119:                                              ; preds = %119, %.split52
  %indvars.iv.i = phi i64 [ 0, %.split52 ], [ %indvars.iv.next.i, %119 ]
  %120 = getelementptr inbounds float, ptr %15, i64 %indvars.iv.i
  %121 = load float, ptr %120, align 4
  %122 = fmul float %118, %121
  %123 = getelementptr inbounds [4 x float], ptr %4, i64 %96, i64 %indvars.iv.i
  %124 = load float, ptr %123, align 4
  %125 = fadd float %124, %122
  store float %125, ptr %123, align 4
  %126 = getelementptr inbounds [4 x float], ptr %4, i64 %98, i64 %indvars.iv.i
  %127 = load float, ptr %126, align 4
  %128 = fsub float %127, %122
  store float %128, ptr %126, align 4
  %indvars.iv.next.i = add nuw nsw i64 %indvars.iv.i, 1
  %exitcond.not.i = icmp eq i64 %indvars.iv.next.i, 3
  br i1 %exitcond.not.i, label %_ZN12_GLOBAL__N_116spreadBondForcesIL18BondedKernelFlavor0EEEvfPKfiiPA4_fiPA3_f.exit, label %119, !llvm.loop !15

_ZN12_GLOBAL__N_116spreadBondForcesIL18BondedKernelFlavor0EEEvfPKfiiPA4_fiPA3_f.exit: ; preds = %119
  %129 = call float @llvm.fmuladd.f32(float %113, float %110, float %112)
  %130 = fadd float %.0.ph, %129
  br label %.outer, !llvm.loop !18

.split:                                           ; preds = %81, %_ZN12_GLOBAL__N_116spreadBondForcesIL18BondedKernelFlavor0EEEvfPKfiiPA4_fiPA3_f.exit.us, %36, %.split60.us
  %.us-phi = phi float [ 0.000000e+00, %.split60.us ], [ %.0.ph.us92, %36 ], [ %33, %_ZN12_GLOBAL__N_116spreadBondForcesIL18BondedKernelFlavor0EEEvfPKfiiPA4_fiPA3_f.exit.us ], [ %.0.ph, %81 ]
  ret float %.us-phi
}